; Function Attrs: nounwind uwtable
define hidden i32 @drsuapi_dissect_struct_DsGetNT4ChangeLogRequest1(ptr noundef %0, i32 noundef %1, ptr noundef %2, ptr noundef %3, ptr noundef %4, ptr noundef %5, i32 noundef %6, i32 %7) local_unnamed_addr #0 {
  %9 = getelementptr inbounds nuw i8, ptr %4, i64 72
  %10 = load ptr, ptr %9, align 8
  %11 = getelementptr inbounds nuw i8, ptr %10, i64 96
  %12 = load i32, ptr %11, align 8
  %13 = and i32 %12, 1
  %.not = icmp eq i32 %13, 0
  %14 = getelementptr inbounds nuw i8, ptr %4, i64 28
  %15 = load i32, ptr %14, align 4
  %.not52 = icmp ne i32 %15, 0
  br i1 %.not, label %21, label %16

16:                                               ; preds = %8
  %17 = and i32 %1, 7
  %.not55 = icmp eq i32 %17, 0
  %or.cond = or i1 %.not55, %.not52
  br i1 %or.cond, label %26, label %18

18:                                               ; preds = %16
  %19 = and i32 %1, -8
  %20 = add i32 %19, 8
  br label %26

21:                                               ; preds = %8
  %22 = and i32 %1, 3
  %.not53 = icmp eq i32 %22, 0
  %or.cond60 = or i1 %.not53, %.not52
  br i1 %or.cond60, label %26, label %23

23:                                               ; preds = %21
  %24 = and i32 %1, -4
  %25 = add i32 %24, 4
  br label %26

26:                                               ; preds = %21, %23, %16, %18
  %.0 = phi i32 [ %1, %16 ], [ %20, %18 ], [ %1, %21 ], [ %25, %23 ]
  %.not56 = icmp eq ptr %3, null
  br i1 %.not56, label %31, label %27

27:                                               ; preds = %26
  %28 = tail call ptr @proto_tree_add_item(ptr noundef nonnull %3, i32 noundef %6, ptr noundef %0, i32 noundef %.0, i32 noundef -1, i32 noundef 0) #5
  %29 = load i32, ptr @ett_drsuapi_drsuapi_DsGetNT4ChangeLogRequest1, align 4
  %30 = tail call ptr @proto_item_add_subtree(ptr noundef %28, i32 noundef %29) #5
  br label %31

31:                                               ; preds = %27, %26
  %.050 = phi ptr [ %28, %27 ], [ null, %26 ]
  %.049 = phi ptr [ %30, %27 ], [ null, %26 ]
  %32 = load i32, ptr @hf_drsuapi_drsuapi_DsGetNT4ChangeLogRequest1_flags, align 4
  %33 = tail call i32 @drsuapi_dissect_bitmap_DsGetNT4ChangeLogFlags(ptr noundef %0, i32 noundef %.0, ptr noundef %2, ptr noundef %.049, ptr noundef nonnull %4, ptr noundef %5, i32 noundef %32, i32 poison)
  %34 = load i32, ptr @hf_drsuapi_drsuapi_DsGetNT4ChangeLogRequest1_preferred_maximum_length, align 4
  %35 = tail call i32 @PIDL_dissect_uint32(ptr noundef %0, i32 noundef %33, ptr noundef %2, ptr noundef %.049, ptr noundef nonnull %4, ptr noundef %5, i32 noundef %34, i32 noundef 0) #5
  %36 = load i32, ptr @hf_drsuapi_drsuapi_DsGetNT4ChangeLogRequest1_restart_length, align 4
  %37 = tail call i32 @PIDL_dissect_uint32(ptr noundef %0, i32 noundef %35, ptr noundef %2, ptr noundef %.049, ptr noundef nonnull %4, ptr noundef %5, i32 noundef %36, i32 noundef 0) #5
  %38 = load i32, ptr @hf_drsuapi_drsuapi_DsGetNT4ChangeLogRequest1_restart_data, align 4
  %39 = tail call i32 @dissect_ndr_embedded_pointer(ptr noundef %0, i32 noundef %37, ptr noundef %2, ptr noundef %.049, ptr noundef nonnull %4, ptr noundef %5, ptr noundef nonnull @drsuapi_dissect_element_DsGetNT4ChangeLogRequest1_restart_data_, i32 noundef 2, ptr noundef nonnull @.str.1464, i32 noundef %38) #5
  %40 = sub i32 %39, %.0
  tail call void @proto_item_set_len(ptr noundef %.050, i32 noundef %40) #5
  %41 = load ptr, ptr %9, align 8
  %42 = getelementptr inbounds nuw i8, ptr %41, i64 96
  %43 = load i32, ptr %42, align 8
  %44 = and i32 %43, 1
  %.not57 = icmp eq i32 %44, 0
  br i1 %.not57, label %52, label %45

45:                                               ; preds = %31
  %46 = getelementptr inbounds nuw i8, ptr %4, i64 28
  %47 = load i32, ptr %46, align 4
  %.not58 = icmp ne i32 %47, 0
  %48 = and i32 %39, 7
  %.not59 = icmp eq i32 %48, 0
  %or.cond61 = or i1 %.not59, %.not58
  br i1 %or.cond61, label %52, label %49

49:                                               ; preds = %45
  %50 = and i32 %39, -8
  %51 = add i32 %50, 8
  br label %52

52:                                               ; preds = %49, %45, %31
  %.1 = phi i32 [ %39, %45 ], [ %51, %49 ], [ %39, %31 ]
  ret i32 %.1
}